; Function Attrs: nounwind uwtable
define hidden zeroext i8 @zdp_parse_status(ptr noundef %0, ptr noundef %1, ptr noundef captures(none) %2) local_unnamed_addr #0 {
  %4 = load i32, ptr %2, align 4
  %5 = tail call zeroext i8 @tvb_get_guint8(ptr noundef %1, i32 noundef %4) #4
  %6 = load i32, ptr @hf_zbee_zdp_status, align 4
  %7 = load i32, ptr %2, align 4
  %8 = zext i8 %5 to i32
  %9 = tail call ptr @proto_tree_add_uint(ptr noundef %0, i32 noundef %6, ptr noundef %1, i32 noundef %7, i32 noundef 1, i32 noundef %8) #4
  %10 = load i32, ptr %2, align 4
  %11 = add i32 %10, 1
  store i32 %11, ptr %2, align 4
  ret i8 %5
}